(lp0
VAMZN
p1
aVVRX
p2
aVAGN
p3
aVRH
p4
aVBLUE
p5
aVCMG
p6
aVMNK
p7
aVPRGO
p8
aVGPRO
p9
aVGILD
p10
aVBBBY
p11
aVCF
p12
aVFOSL
p13
aVWDC
p14
aVTWTR
p15
aVALXN
p16
aVILMN
p17
aVVIAB
p18
aVTEVA
p19
aVBIIB
p20
aVCL
p21
aVLLL
p22
aVKORS
p23
aVKMI
p24
aVNLNK
p25
aVSKX
p26
aVSWIR
p27
aVCVS
p28
aVWSM
p29
aVWHR
p30
aVMYL
p31
aVBMRN
p32
aVCLVS
p33
aVOPHT
p34
aVALNY
p35
aVTSLA
p36
aVBMY 
p37
aVNSM
p38
aVSTX
p39
aVVOD
p40
aVICPT
p41
aVMCK
p42
aVMRO
p43
aVSHPG
p44
aVSPG
p45
aVNOV
p46
aVETE
p47
aVMON
p48
aVTRGP
p49
aVCOP
p50
aVIBB
p51
aVSSYS
p52
aVCLDX
p53
aVM
p54
aVWFM
p55
aVDATA
p56
aVTRN
p57
aVBG
p58
aVDVN
p59
aVTHC
p60
aVPBYI
p61
aVCSIQ
p62
aVBX
p63
aVAXP
p64
aVAPC
p65
aVHES
p66
aVAMBA
p67
aVXON
p68
a.