(lp0
VAMZN
p1
aVVRX
p2
aVRH
p3
aVBLUE
p4
aVCMG
p5
aVMNK
p6
aVPRGO
p7
aVGPRO
p8
aVGILD
p9
aVBBBY
p10
aVCF
p11
aVFOSL
p12
aVWDC
p13
aVTWTR
p14
aVALXN
p15
aVILMN
p16
aVVIAB
p17
aVTEVA
p18
aVBIIB
p19
aVCL
p20
aVLLL
p21
aVKORS
p22
aVKMI
p23
aVNLNK
p24
aVSKX
p25
aVSWIR
p26
aVCVS
p27
aVWSM
p28
aVWHR
p29
aVMYL
p30
aVBMRN
p31
aVCLVS
p32
aVOPHT
p33
aVALNY
p34
aVTSLA
p35
aVBMY
p36
aVNSM
p37
aVSTX
p38
aVVOD
p39
aVICPT
p40
aVMCK
p41
aVMRO
p42
aVSHPG
p43
aVSPG
p44
aVNOV
p45
aVETE
p46
aVMON
p47
aVTRGP
p48
aVCOP
p49
aVIBB
p50
aVSSYS
p51
aVCLDX
p52
aVM
p53
aVWFM
p54
aVDATA
p55
aVTRN
p56
aVBG
p57
aVDVN
p58
aVTHC
p59
aVPBYI
p60
aVCSIQ
p61
aVBX
p62
aVAXP
p63
aVAPC
p64
aVHES
p65
aVAMBA
p66
aVXON
p67
aVAGN
p68
a.